	.file	"solution.cpp"
	.text
.Ltext0:
	.section	.text._ZNKSt5ctypeIcE8do_widenEc,"axG",@progbits,_ZNKSt5ctypeIcE8do_widenEc,comdat
	.align 2
	.p2align 4,,15
	.weak	_ZNKSt5ctypeIcE8do_widenEc
	.type	_ZNKSt5ctypeIcE8do_widenEc, @function
_ZNKSt5ctypeIcE8do_widenEc:
.LFB1321:
	.file 1 "/nix/store/bm7pb1s7rx1ad80706b5xqrznq7fgpgx-gcc-7.3.0/include/c++/7.3.0/bits/locale_facets.h"
	.loc 1 1082 0
	.cfi_startproc
.LVL0:
	.loc 1 1083 0
	movl	%esi, %eax
	ret
	.cfi_endproc
.LFE1321:
	.size	_ZNKSt5ctypeIcE8do_widenEc, .-_ZNKSt5ctypeIcE8do_widenEc
	.section	.text._ZN9__gnu_cxx12__to_xstringINSt7__cxx1112basic_stringIcSt11char_traitsIcESaIcEEEcEET_PFiPT0_mPKS8_P13__va_list_tagEmSB_z,"axG",@progbits,_ZN9__gnu_cxx12__to_xstringINSt7__cxx1112basic_stringIcSt11char_traitsIcESaIcEEEcEET_PFiPT0_mPKS8_P13__va_list_tagEmSB_z,comdat
	.p2align 4,,15
	.weak	_ZN9__gnu_cxx12__to_xstringINSt7__cxx1112basic_stringIcSt11char_traitsIcESaIcEEEcEET_PFiPT0_mPKS8_P13__va_list_tagEmSB_z
	.type	_ZN9__gnu_cxx12__to_xstringINSt7__cxx1112basic_stringIcSt11char_traitsIcESaIcEEEcEET_PFiPT0_mPKS8_P13__va_list_tagEmSB_z, @function
_ZN9__gnu_cxx12__to_xstringINSt7__cxx1112basic_stringIcSt11char_traitsIcESaIcEEEcEET_PFiPT0_mPKS8_P13__va_list_tagEmSB_z:
.LFB2034:
	.file 2 "/nix/store/bm7pb1s7rx1ad80706b5xqrznq7fgpgx-gcc-7.3.0/include/c++/7.3.0/ext/string_conversions.h"
	.loc 2 99 0
	.cfi_startproc
.LVL1:
	pushq	%rbp
	.cfi_def_cfa_offset 16
	.cfi_offset 6, -16
	movq	%rsi, %r10
	movq	%rdx, %rsi
.LVL2:
	movq	%rcx, %rdx
.LVL3:
	movq	%rsp, %rbp
	.cfi_def_cfa_register 6
	pushq	%r13
	pushq	%r12
	pushq	%rbx
	.cfi_offset 13, -24
	.cfi_offset 12, -32
	.cfi_offset 3, -40
	movq	%rdi, %r12
	subq	$232, %rsp
	testb	%al, %al
	movq	%r8, -176(%rbp)
	movq	%r9, -168(%rbp)
	je	.L4
	movaps	%xmm0, -160(%rbp)
	movaps	%xmm1, -144(%rbp)
	movaps	%xmm2, -128(%rbp)
	movaps	%xmm3, -112(%rbp)
	movaps	%xmm4, -96(%rbp)
	movaps	%xmm5, -80(%rbp)
	movaps	%xmm6, -64(%rbp)
	movaps	%xmm7, -48(%rbp)
.L4:
	.loc 2 99 0
	movq	%fs:40, %rax
	movq	%rax, -216(%rbp)
	xorl	%eax, %eax
	.loc 2 105 0
	leaq	30(%rsi), %rax
	.loc 2 111 0
	leaq	-240(%rbp), %rcx
.LVL4:
	.loc 2 105 0
	andq	$-16, %rax
	.loc 2 109 0
	movl	$32, -240(%rbp)
	movl	$48, -236(%rbp)
	.loc 2 105 0
	subq	%rax, %rsp
	.loc 2 109 0
	leaq	16(%rbp), %rax
	.loc 2 105 0
	leaq	15(%rsp), %r13
	.loc 2 109 0
	movq	%rax, -232(%rbp)
	leaq	-208(%rbp), %rax
	.loc 2 105 0
	andq	$-16, %r13
.LVL5:
	.loc 2 109 0
	movq	%rax, -224(%rbp)
	.loc 2 111 0
	movq	%r13, %rdi
.LVL6:
	call	*%r10
.LVL7:
	.loc 2 115 0
	movslq	%eax, %rbx
.LVL8:
.LBB1378:
.LBB1379:
.LBB1380:
	.file 3 "/nix/store/bm7pb1s7rx1ad80706b5xqrznq7fgpgx-gcc-7.3.0/include/c++/7.3.0/bits/basic_string.h"
	.loc 3 182 0
	leaq	16(%r12), %rax
.LVL9:
.LBE1380:
.LBE1379:
.LBB1381:
.LBB1382:
.LBB1383:
.LBB1384:
.LBB1385:
.LBB1386:
	.file 4 "/nix/store/bm7pb1s7rx1ad80706b5xqrznq7fgpgx-gcc-7.3.0/include/c++/7.3.0/bits/basic_string.tcc"
	.loc 4 217 0
	cmpq	$15, %rbx
	.loc 4 215 0
	movq	%rbx, -248(%rbp)
.LBE1386:
.LBE1385:
.LBE1384:
.LBE1383:
.LBE1382:
.LBE1381:
.LBB1425:
.LBB1426:
	.loc 3 146 0
	movq	%rax, (%r12)
.LVL10:
.LBE1426:
.LBE1425:
.LBB1427:
.LBB1422:
.LBB1419:
.LBB1416:
.LBB1413:
.LBB1410:
	.loc 4 217 0
	ja	.L11
.LVL11:
.LBB1387:
.LBB1388:
.LBB1389:
	.loc 3 337 0
	cmpq	$1, %rbx
	jne	.L7
.LVL12:
.LBB1390:
.LBB1391:
	.file 5 "/nix/store/bm7pb1s7rx1ad80706b5xqrznq7fgpgx-gcc-7.3.0/include/c++/7.3.0/bits/char_traits.h"
	.loc 5 285 0
	movzbl	0(%r13), %edx
	movb	%dl, 16(%r12)
.LVL13:
.L8:
.LBE1391:
.LBE1390:
.LBE1389:
.LBE1388:
.LBE1387:
.LBE1410:
.LBE1413:
.LBE1416:
.LBE1419:
.LBE1422:
.LBE1427:
.LBE1378:
	.loc 2 116 0
	movq	-216(%rbp), %rdi
	xorq	%fs:40, %rdi
.LBB1430:
.LBB1428:
.LBB1423:
.LBB1420:
.LBB1417:
.LBB1414:
.LBB1411:
.LBB1397:
.LBB1398:
.LBB1399:
.LBB1400:
	.loc 3 172 0
	movq	%rbx, 8(%r12)
.LVL14:
.LBE1400:
.LBE1399:
.LBB1401:
.LBB1402:
	.loc 5 285 0
	movb	$0, (%rax,%rbx)
.LVL15:
.LBE1402:
.LBE1401:
.LBE1398:
.LBE1397:
.LBE1411:
.LBE1414:
.LBE1417:
.LBE1420:
.LBE1423:
.LBE1428:
.LBE1430:
	.loc 2 116 0
	movq	%r12, %rax
	jne	.L12
.LVL16:
	leaq	-24(%rbp), %rsp
	popq	%rbx
	popq	%r12
	popq	%r13
.LVL17:
	popq	%rbp
	.cfi_remember_state
	.cfi_def_cfa 7, 8
	ret
.LVL18:
	.p2align 4,,10
	.p2align 3
.L11:
	.cfi_restore_state
.LBB1431:
.LBB1429:
.LBB1424:
.LBB1421:
.LBB1418:
.LBB1415:
.LBB1412:
	.loc 4 219 0
	leaq	-248(%rbp), %rsi
	xorl	%edx, %edx
	movq	%r12, %rdi
	call	_ZNSt7__cxx1112basic_stringIcSt11char_traitsIcESaIcEE9_M_createERmm@PLT
.LVL19:
.LBB1403:
.LBB1404:
	.loc 3 200 0
	movq	-248(%rbp), %rdx
.LBE1404:
.LBE1403:
.LBB1406:
.LBB1407:
	.loc 3 168 0
	movq	%rax, (%r12)
.LVL20:
.LBE1407:
.LBE1406:
.LBB1408:
.LBB1405:
	.loc 3 200 0
	movq	%rdx, 16(%r12)
.LVL21:
.L6:
.LBE1405:
.LBE1408:
.LBB1409:
.LBB1396:
.LBB1395:
.LBB1392:
.LBB1393:
.LBB1394:
	.loc 5 350 0
	movq	%rbx, %rdx
	movq	%r13, %rsi
	movq	%rax, %rdi
	call	memcpy@PLT
.LVL22:
	movq	-248(%rbp), %rbx
.LVL23:
	movq	(%r12), %rax
	jmp	.L8
.LVL24:
	.p2align 4,,10
	.p2align 3
.L7:
	.loc 5 348 0
	testq	%rbx, %rbx
	je	.L8
	jmp	.L6
.LVL25:
.L12:
.LBE1394:
.LBE1393:
.LBE1392:
.LBE1395:
.LBE1396:
.LBE1409:
.LBE1412:
.LBE1415:
.LBE1418:
.LBE1421:
.LBE1424:
.LBE1429:
.LBE1431:
	.loc 2 116 0
	call	__stack_chk_fail@PLT
.LVL26:
	.cfi_endproc
.LFE2034:
	.size	_ZN9__gnu_cxx12__to_xstringINSt7__cxx1112basic_stringIcSt11char_traitsIcESaIcEEEcEET_PFiPT0_mPKS8_P13__va_list_tagEmSB_z, .-_ZN9__gnu_cxx12__to_xstringINSt7__cxx1112basic_stringIcSt11char_traitsIcESaIcEEEcEET_PFiPT0_mPKS8_P13__va_list_tagEmSB_z
	.section	.text._ZNSt6vectorISt4pairIKiS1_ESaIS2_EE17_M_realloc_insertIJS2_EEEvN9__gnu_cxx17__normal_iteratorIPS2_S4_EEDpOT_,"axG",@progbits,_ZNSt6vectorISt4pairIKiS1_ESaIS2_EE17_M_realloc_insertIJS2_EEEvN9__gnu_cxx17__normal_iteratorIPS2_S4_EEDpOT_,comdat
	.align 2
	.p2align 4,,15
	.weak	_ZNSt6vectorISt4pairIKiS1_ESaIS2_EE17_M_realloc_insertIJS2_EEEvN9__gnu_cxx17__normal_iteratorIPS2_S4_EEDpOT_
	.type	_ZNSt6vectorISt4pairIKiS1_ESaIS2_EE17_M_realloc_insertIJS2_EEEvN9__gnu_cxx17__normal_iteratorIPS2_S4_EEDpOT_, @function
_ZNSt6vectorISt4pairIKiS1_ESaIS2_EE17_M_realloc_insertIJS2_EEEvN9__gnu_cxx17__normal_iteratorIPS2_S4_EEDpOT_:
.LFB2400:
	.file 6 "/nix/store/bm7pb1s7rx1ad80706b5xqrznq7fgpgx-gcc-7.3.0/include/c++/7.3.0/bits/vector.tcc"
	.loc 6 394 0
	.cfi_startproc
.LVL27:
	pushq	%r15
	.cfi_def_cfa_offset 16
	.cfi_offset 15, -16
	pushq	%r14
	.cfi_def_cfa_offset 24
	.cfi_offset 14, -24
	movq	%rsi, %r14
	pushq	%r13
	.cfi_def_cfa_offset 32
	.cfi_offset 13, -32
	pushq	%r12
	.cfi_def_cfa_offset 40
	.cfi_offset 12, -40
	pushq	%rbp
	.cfi_def_cfa_offset 48
	.cfi_offset 6, -48
	pushq	%rbx
	.cfi_def_cfa_offset 56
	.cfi_offset 3, -56
	movq	%rdi, %rbp
	movq	%rsi, %rbx
	subq	$24, %rsp
	.cfi_def_cfa_offset 80
	movq	8(%rbp), %rax
	movq	(%rdi), %rdi
.LVL28:
.LBB1484:
.LBB1485:
.LBB1486:
.LBB1487:
	.file 7 "/nix/store/bm7pb1s7rx1ad80706b5xqrznq7fgpgx-gcc-7.3.0/include/c++/7.3.0/bits/stl_vector.h"
	.loc 7 671 0
	movq	%rax, %rcx
	subq	%rdi, %r14
	subq	%rdi, %rcx
	sarq	$3, %rcx
.LVL29:
.LBE1487:
.LBE1486:
.LBB1488:
.LBB1489:
	.file 8 "/nix/store/bm7pb1s7rx1ad80706b5xqrznq7fgpgx-gcc-7.3.0/include/c++/7.3.0/bits/stl_algobase.h"
	.loc 8 224 0
	testq	%rcx, %rcx
	je	.L25
.LVL30:
.LBE1489:
.LBE1488:
	.loc 7 1502 0
	leaq	(%rcx,%rcx), %rsi
.LVL31:
	.loc 7 1503 0
	movq	$-8, %r13
	cmpq	%rsi, %rcx
	jbe	.L44
.LVL32:
.L15:
.LBE1485:
.LBE1484:
.LBB1491:
.LBB1492:
.LBB1493:
.LBB1494:
.LBB1495:
	.file 9 "/nix/store/bm7pb1s7rx1ad80706b5xqrznq7fgpgx-gcc-7.3.0/include/c++/7.3.0/ext/new_allocator.h"
	.loc 9 111 0
	movq	%r13, %rdi
	movq	%rdx, 8(%rsp)
	call	_Znwm@PLT
.LVL33:
	movq	0(%rbp), %rdi
	movq	%rax, %r12
	movq	8(%rsp), %rdx
	movq	8(%rbp), %rax
	leaq	8(%r12), %r15
	addq	%r12, %r13
.LVL34:
.L16:
.LBE1495:
.LBE1494:
.LBE1493:
.LBE1492:
.LBE1491:
.LBB1497:
.LBB1498:
.LBB1499:
	.loc 9 136 0
	addq	%r12, %r14
.LVL35:
	je	.L17
	movq	(%rdx), %rdx
	movq	%rdx, (%r14)
.L17:
.LVL36:
.LBE1499:
.LBE1498:
.LBE1497:
.LBB1500:
.LBB1501:
.LBB1502:
.LBB1503:
.LBB1504:
.LBB1505:
	.file 10 "/nix/store/bm7pb1s7rx1ad80706b5xqrznq7fgpgx-gcc-7.3.0/include/c++/7.3.0/bits/stl_uninitialized.h"
	.loc 10 82 0
	cmpq	%rdi, %rbx
	je	.L18
	.loc 10 79 0
	movq	%r12, %rcx
	.loc 10 82 0
	movq	%rdi, %rdx
.LVL37:
	.p2align 4,,10
	.p2align 3
.L20:
.LBB1506:
.LBB1507:
	.file 11 "/nix/store/bm7pb1s7rx1ad80706b5xqrznq7fgpgx-gcc-7.3.0/include/c++/7.3.0/bits/stl_construct.h"
	.loc 11 75 0
	testq	%rcx, %rcx
	je	.L19
	movq	(%rdx), %rsi
	movq	%rsi, (%rcx)
.L19:
.LVL38:
.LBE1507:
.LBE1506:
.LBB1508:
.LBB1509:
	.file 12 "/nix/store/bm7pb1s7rx1ad80706b5xqrznq7fgpgx-gcc-7.3.0/include/c++/7.3.0/bits/stl_iterator.h"
	.loc 12 1059 0
	addq	$8, %rdx
.LVL39:
.LBE1509:
.LBE1508:
	.loc 10 82 0
	addq	$8, %rcx
.LVL40:
	cmpq	%rdx, %rbx
	jne	.L20
	leaq	8(%rdi), %rdx
.LVL41:
	movq	%rbx, %rsi
	subq	%rdx, %rsi
	movq	%rsi, %rdx
	shrq	$3, %rdx
	leaq	16(%r12,%rdx,8), %r15
.LVL42:
.L18:
.LBE1505:
.LBE1504:
.LBE1503:
.LBE1502:
.LBE1501:
.LBE1500:
.LBB1510:
.LBB1511:
.LBB1512:
.LBB1513:
.LBB1514:
.LBB1515:
	cmpq	%rax, %rbx
	je	.L21
	movq	%rbx, %rdx
	.loc 10 79 0
	movq	%r15, %rcx
.LVL43:
	.p2align 4,,10
	.p2align 3
.L23:
.LBB1516:
.LBB1517:
	.loc 11 75 0
	testq	%rcx, %rcx
	je	.L22
	movq	(%rdx), %rsi
	movq	%rsi, (%rcx)
.L22:
.LVL44:
.LBE1517:
.LBE1516:
.LBB1518:
.LBB1519:
	.loc 12 1059 0
	addq	$8, %rdx
.LVL45:
.LBE1519:
.LBE1518:
	.loc 10 82 0
	addq	$8, %rcx
.LVL46:
	cmpq	%rax, %rdx
	jne	.L23
	addq	$8, %rbx
.LVL47:
	subq	%rbx, %rdx
.LVL48:
	shrq	$3, %rdx
	leaq	8(%r15,%rdx,8), %r15
.LVL49:
.L21:
.LBE1515:
.LBE1514:
.LBE1513:
.LBE1512:
.LBE1511:
.LBE1510:
.LBB1520:
.LBB1521:
	.loc 7 179 0
	testq	%rdi, %rdi
	je	.L24
.LVL50:
.LBB1522:
.LBB1523:
.LBB1524:
	.loc 9 125 0
	call	_ZdlPv@PLT
.LVL51:
.L24:
.LBE1524:
.LBE1523:
.LBE1522:
.LBE1521:
.LBE1520:
	.loc 6 451 0
	movq	%r12, 0(%rbp)
	.loc 6 452 0
	movq	%r15, 8(%rbp)
	.loc 6 453 0
	movq	%r13, 16(%rbp)
	.loc 6 454 0
	addq	$24, %rsp
	.cfi_remember_state
	.cfi_def_cfa_offset 56
	popq	%rbx
	.cfi_def_cfa_offset 48
.LVL52:
	popq	%rbp
	.cfi_def_cfa_offset 40
.LVL53:
	popq	%r12
	.cfi_def_cfa_offset 32
	popq	%r13
	.cfi_def_cfa_offset 24
	popq	%r14
	.cfi_def_cfa_offset 16
	popq	%r15
	.cfi_def_cfa_offset 8
.LVL54:
	ret
.LVL55:
	.p2align 4,,10
	.p2align 3
.L25:
	.cfi_restore_state
.LBB1525:
.LBB1490:
	.loc 7 1502 0
	movl	$1, %esi
.LVL56:
.L14:
	leaq	0(,%rsi,8), %r13
	jmp	.L15
.LVL57:
	.p2align 4,,10
	.p2align 3
.L44:
	.loc 7 1503 0
	movabsq	$2305843009213693951, %rcx
	cmpq	%rcx, %rsi
	ja	.L15
.LVL58:
.LBE1490:
.LBE1525:
.LBB1526:
.LBB1496:
	.loc 7 172 0
	testq	%rsi, %rsi
	jne	.L14
	movl	$8, %r15d
	xorl	%r13d, %r13d
	xorl	%r12d, %r12d
	jmp	.L16
.LBE1496:
.LBE1526:
	.cfi_endproc
.LFE2400:
	.size	_ZNSt6vectorISt4pairIKiS1_ESaIS2_EE17_M_realloc_insertIJS2_EEEvN9__gnu_cxx17__normal_iteratorIPS2_S4_EEDpOT_, .-_ZNSt6vectorISt4pairIKiS1_ESaIS2_EE17_M_realloc_insertIJS2_EEEvN9__gnu_cxx17__normal_iteratorIPS2_S4_EEDpOT_
	.section	.text._ZNSt6vectorIiSaIiEE17_M_realloc_insertIJRKiEEEvN9__gnu_cxx17__normal_iteratorIPiS1_EEDpOT_,"axG",@progbits,_ZNSt6vectorIiSaIiEE17_M_realloc_insertIJRKiEEEvN9__gnu_cxx17__normal_iteratorIPiS1_EEDpOT_,comdat
	.align 2
	.p2align 4,,15
	.weak	_ZNSt6vectorIiSaIiEE17_M_realloc_insertIJRKiEEEvN9__gnu_cxx17__normal_iteratorIPiS1_EEDpOT_
	.type	_ZNSt6vectorIiSaIiEE17_M_realloc_insertIJRKiEEEvN9__gnu_cxx17__normal_iteratorIPiS1_EEDpOT_, @function
_ZNSt6vectorIiSaIiEE17_M_realloc_insertIJRKiEEEvN9__gnu_cxx17__normal_iteratorIPiS1_EEDpOT_:
.LFB2503:
	.loc 6 394 0
	.cfi_startproc
.LVL59:
	pushq	%r15
	.cfi_def_cfa_offset 16
	.cfi_offset 15, -16
	pushq	%r14
	.cfi_def_cfa_offset 24
	.cfi_offset 14, -24
	movq	%rsi, %r14
	pushq	%r13
	.cfi_def_cfa_offset 32
	.cfi_offset 13, -32
	pushq	%r12
	.cfi_def_cfa_offset 40
	.cfi_offset 12, -40
	movq	%rsi, %r12
	pushq	%rbp
	.cfi_def_cfa_offset 48
	.cfi_offset 6, -48
	pushq	%rbx
	.cfi_def_cfa_offset 56
	.cfi_offset 3, -56
	movq	%rdi, %rbp
	subq	$24, %rsp
	.cfi_def_cfa_offset 80
.LBB1581:
.LBB1582:
.LBB1583:
.LBB1584:
	.loc 7 671 0
	movq	8(%rdi), %rcx
	movq	(%rdi), %rbx
.LVL60:
	movq	%rcx, %rax
	subq	%rbx, %r14
	subq	%rbx, %rax
	sarq	$2, %rax
.LVL61:
.LBE1584:
.LBE1583:
.LBB1585:
.LBB1586:
	.loc 8 224 0
	testq	%rax, %rax
	je	.L53
.LVL62:
.LBE1586:
.LBE1585:
	.loc 7 1502 0
	leaq	(%rax,%rax), %rsi
.LVL63:
	.loc 7 1503 0
	movq	$-4, %r15
	cmpq	%rsi, %rax
	jbe	.L64
.LVL64:
.L47:
.LBE1582:
.LBE1581:
.LBB1588:
.LBB1589:
.LBB1590:
.LBB1591:
.LBB1592:
	.loc 9 111 0
	movq	%r15, %rdi
.LVL65:
	movq	%rdx, (%rsp)
	call	_Znwm@PLT
.LVL66:
	movq	0(%rbp), %rbx
	movq	8(%rbp), %rcx
	movq	%r12, %r8
	movq	(%rsp), %rdx
	movq	%rax, %r13
	addq	%rax, %r15
	subq	%rbx, %r8
.LVL67:
.L48:
.LBE1592:
.LBE1591:
.LBE1590:
.LBE1589:
.LBE1588:
.LBB1594:
.LBB1595:
.LBB1596:
	.loc 9 136 0
	addq	%r13, %r14
.LVL68:
	je	.L49
	movl	(%rdx), %eax
	movl	%eax, (%r14)
.L49:
.LVL69:
.LBE1596:
.LBE1595:
.LBE1594:
.LBB1597:
.LBB1598:
.LBB1599:
.LBB1600:
.LBB1601:
.LBB1602:
.LBB1603:
.LBB1604:
.LBB1605:
.LBB1606:
.LBB1607:
	.loc 8 367 0
	cmpq	%rbx, %r12
	je	.L50
	.loc 8 368 0
	movq	%r8, %rdx
	movq	%rbx, %rsi
	movq	%r13, %rdi
	movq	%rcx, 8(%rsp)
	movq	%r8, (%rsp)
	call	memmove@PLT
.LVL70:
	movq	8(%rsp), %rcx
	movq	(%rsp), %r8
.L50:
.LVL71:
.LBE1607:
.LBE1606:
.LBE1605:
.LBE1604:
.LBE1603:
.LBE1602:
.LBE1601:
.LBE1600:
.LBE1599:
.LBE1598:
.LBE1597:
.LBB1608:
.LBB1609:
.LBB1610:
.LBB1611:
.LBB1612:
.LBB1613:
.LBB1614:
.LBB1615:
.LBB1616:
.LBB1617:
.LBB1618:
	.loc 8 366 0
	movq	%rcx, %r14
.LBE1618:
.LBE1617:
.LBE1616:
.LBE1615:
.LBE1614:
.LBE1613:
.LBE1612:
.LBE1611:
.LBE1610:
.LBE1609:
.LBE1608:
	.loc 6 429 0
	leaq	4(%r13,%r8), %r8
.LVL72:
.LBB1629:
.LBB1628:
.LBB1627:
.LBB1626:
.LBB1625:
.LBB1624:
.LBB1623:
.LBB1622:
.LBB1621:
.LBB1620:
.LBB1619:
	.loc 8 366 0
	subq	%r12, %r14
	.loc 8 367 0
	cmpq	%r12, %rcx
	je	.L51
	.loc 8 368 0
	movq	%r8, %rdi
	movq	%r14, %rdx
	movq	%r12, %rsi
	call	memcpy@PLT
.LVL73:
	movq	%rax, %r8
.L51:
	.loc 8 369 0
	addq	%r8, %r14
.LVL74:
.LBE1619:
.LBE1620:
.LBE1621:
.LBE1622:
.LBE1623:
.LBE1624:
.LBE1625:
.LBE1626:
.LBE1627:
.LBE1628:
.LBE1629:
.LBB1630:
.LBB1631:
	.loc 7 179 0
	testq	%rbx, %rbx
	je	.L52
.LVL75:
.LBB1632:
.LBB1633:
.LBB1634:
	.loc 9 125 0
	movq	%rbx, %rdi
	call	_ZdlPv@PLT
.LVL76:
.L52:
.LBE1634:
.LBE1633:
.LBE1632:
.LBE1631:
.LBE1630:
	.loc 6 451 0
	movq	%r13, 0(%rbp)
	.loc 6 452 0
	movq	%r14, 8(%rbp)
	.loc 6 453 0
	movq	%r15, 16(%rbp)
	.loc 6 454 0
	addq	$24, %rsp
	.cfi_remember_state
	.cfi_def_cfa_offset 56
	popq	%rbx
	.cfi_def_cfa_offset 48
	popq	%rbp
	.cfi_def_cfa_offset 40
.LVL77:
	popq	%r12
	.cfi_def_cfa_offset 32
.LVL78:
	popq	%r13
	.cfi_def_cfa_offset 24
	popq	%r14
	.cfi_def_cfa_offset 16
.LVL79:
	popq	%r15
	.cfi_def_cfa_offset 8
	ret
.LVL80:
	.p2align 4,,10
	.p2align 3
.L53:
	.cfi_restore_state
.LBB1635:
.LBB1587:
	.loc 7 1502 0
	movl	$1, %esi
.LVL81:
.L46:
	leaq	0(,%rsi,4), %r15
	jmp	.L47
.LVL82:
	.p2align 4,,10
	.p2align 3
.L64:
	.loc 7 1503 0
	movabsq	$4611686018427387903, %rax
	cmpq	%rax, %rsi
	ja	.L47
.LVL83:
.LBE1587:
.LBE1635:
.LBB1636:
.LBB1593:
	.loc 7 172 0
	testq	%rsi, %rsi
	jne	.L46
	movq	%r14, %r8
	xorl	%r15d, %r15d
	xorl	%r13d, %r13d
	jmp	.L48
.LBE1593:
.LBE1636:
	.cfi_endproc
.LFE2503:
	.size	_ZNSt6vectorIiSaIiEE17_M_realloc_insertIJRKiEEEvN9__gnu_cxx17__normal_iteratorIPiS1_EEDpOT_, .-_ZNSt6vectorIiSaIiEE17_M_realloc_insertIJRKiEEEvN9__gnu_cxx17__normal_iteratorIPiS1_EEDpOT_
	.section	.rodata.str1.1,"aMS",@progbits,1
.LC0:
	.string	"hello"
.LC1:
	.string	"asd"
.LC2:
	.string	"%d"
	.section	.text.startup,"ax",@progbits
	.p2align 4,,15
	.globl	main
	.type	main, @function
main:
.LFB1935:
	.file 13 "solution.cpp"
	.loc 13 77 0
	.cfi_startproc
	.cfi_personality 0x9b,DW.ref.__gxx_personality_v0
	.cfi_lsda 0x1b,.LLSDA1935
.LVL84:
	pushq	%r15
	.cfi_def_cfa_offset 16
	.cfi_offset 15, -16
	pushq	%r14
	.cfi_def_cfa_offset 24
	.cfi_offset 14, -24
	pushq	%r13
	.cfi_def_cfa_offset 32
	.cfi_offset 13, -32
	pushq	%r12
	.cfi_def_cfa_offset 40
	.cfi_offset 12, -40
	pushq	%rbp
	.cfi_def_cfa_offset 48
	.cfi_offset 6, -48
	pushq	%rbx
	.cfi_def_cfa_offset 56
	.cfi_offset 3, -56
	subq	$280, %rsp
	.cfi_def_cfa_offset 336
	.loc 13 80 0
	movq	_ZSt3cin@GOTPCREL(%rip), %r12
.LBB1989:
.LBB1990:
.LBB1991:
.LBB1992:
.LBB1993:
	.loc 3 149 0
	leaq	160(%rsp), %rsi
.LVL85:
.LBE1993:
.LBE1992:
.LBE1991:
.LBE1990:
.LBE1989:
.LBB2011:
.LBB2012:
.LBB2013:
.LBB2014:
.LBB2015:
	.loc 7 89 0
	movq	$0, 96(%rsp)
	movq	$0, 104(%rsp)
.LBE2015:
.LBE2014:
.LBE2013:
.LBE2012:
.LBE2011:
	.loc 13 77 0
	movq	%fs:40, %rax
	movq	%rax, 264(%rsp)
	xorl	%eax, %eax
.LVL86:
.LBB2020:
.LBB2009:
.LBB2000:
.LBB1997:
.LBB1994:
	.loc 3 149 0
	leaq	16(%rsi), %rax
.LBE1994:
.LBE1997:
.LBE2000:
.LBE2009:
.LBE2020:
	.loc 13 80 0
	movq	%r12, %rdi
.LVL87:
.LBB2021:
.LBB2019:
.LBB2018:
.LBB2017:
.LBB2016:
	.loc 7 89 0
	movq	$0, 112(%rsp)
.LVL88:
.LBE2016:
.LBE2017:
.LBE2018:
.LBE2019:
.LBE2021:
.LBB2022:
.LBB2010:
.LBB2001:
.LBB1998:
.LBB1995:
	.loc 3 149 0
	movq	%rsi, 72(%rsp)
.LBE1995:
.LBE1998:
.LBE2001:
.LBB2002:
.LBB2003:
.LBB2004:
	.loc 3 172 0
	movq	$0, 168(%rsp)
.LBE2004:
.LBE2003:
.LBE2002:
.LBB2007:
.LBB1999:
.LBB1996:
	.loc 3 149 0
	movq	%rax, 160(%rsp)
.LVL89:
.LBE1996:
.LBE1999:
.LBE2007:
.LBB2008:
.LBB2005:
.LBB2006:
	.loc 5 285 0
	movb	$0, 176(%rsp)
.LVL90:
.LEHB0:
.LBE2006:
.LBE2005:
.LBE2008:
.LBE2010:
.LBE2022:
	.loc 13 80 0
	call	_ZSt7getlineIcSt11char_traitsIcESaIcEERSt13basic_istreamIT_T0_ES7_RNSt7__cxx1112basic_stringIS4_S5_T1_EE@PLT
.LVL91:
.LBB2023:
.LBB2024:
	.file 14 "/nix/store/p85kjy91dfvs4in358zyfxlksvibw0zn-glibc-2.26-131-dev/include/stdlib.h"
	.loc 14 248 0
	movq	160(%rsp), %rdi
	xorl	%esi, %esi
	movl	$10, %edx
.LBE2024:
.LBE2023:
.LBB2026:
	.loc 13 83 0
	xorl	%ebx, %ebx
	leaq	88(%rsp), %r13
.LBE2026:
.LBB2058:
.LBB2025:
	.loc 14 248 0
	call	strtol@PLT
.LVL92:
.LBE2025:
.LBE2058:
	.loc 13 81 0
	movslq	%eax, %rbp
.LVL93:
.LBB2059:
	.loc 13 83 0
	testq	%rbp, %rbp
	je	.L72
.LBB2027:
.LBB2028:
.LBB2029:
.LBB2030:
	.loc 6 105 0
	leaq	128(%rsp), %rax
.LBE2030:
.LBE2029:
.LBE2028:
	.loc 13 85 0
	leaq	92(%rsp), %r14
.LBB2044:
.LBB2039:
.LBB2034:
	.loc 6 105 0
	leaq	96(%rsp), %r15
	movq	%rax, 8(%rsp)
	jmp	.L66
.LVL94:
	.p2align 4,,10
	.p2align 3
.L183:
.LBB2031:
.LBB2032:
.LBB2033:
	.loc 9 136 0
	testq	%rsi, %rsi
	je	.L70
	movq	128(%rsp), %rax
	movq	%rax, (%rsi)
.L70:
.LVL95:
.LBE2033:
.LBE2032:
.LBE2031:
.LBE2034:
.LBE2039:
.LBE2044:
.LBE2027:
	.loc 13 83 0
	addq	$1, %rbx
.LVL96:
.LBB2055:
.LBB2045:
.LBB2040:
.LBB2035:
	.loc 6 102 0
	addq	$8, %rsi
.LBE2035:
.LBE2040:
.LBE2045:
.LBE2055:
	.loc 13 83 0
	cmpq	%rbx, %rbp
.LBB2056:
.LBB2046:
.LBB2041:
.LBB2036:
	.loc 6 102 0
	movq	%rsi, 104(%rsp)
.LVL97:
.LBE2036:
.LBE2041:
.LBE2046:
.LBE2056:
	.loc 13 83 0
	je	.L72
.LVL98:
.L66:
.LBB2057:
	.loc 13 85 0
	movq	%r13, %rsi
	movq	%r12, %rdi
	call	_ZNSirsERi@PLT
.LVL99:
	movq	%r14, %rsi
	movq	%rax, %rdi
	call	_ZNSirsERi@PLT
.LVL100:
.LBB2047:
.LBB2048:
.LBB2049:
	.file 15 "/nix/store/bm7pb1s7rx1ad80706b5xqrznq7fgpgx-gcc-7.3.0/include/c++/7.3.0/bits/stl_pair.h"
	.loc 15 351 0
	movl	88(%rsp), %eax
.LBE2049:
.LBE2048:
.LBE2047:
.LBB2052:
.LBB2042:
.LBB2037:
	.loc 6 98 0
	movq	104(%rsp), %rsi
	cmpq	112(%rsp), %rsi
.LBE2037:
.LBE2042:
.LBE2052:
.LBB2053:
.LBB2051:
.LBB2050:
	.loc 15 351 0
	movl	%eax, 128(%rsp)
	movl	92(%rsp), %eax
	movl	%eax, 132(%rsp)
.LVL101:
.LBE2050:
.LBE2051:
.LBE2053:
.LBB2054:
.LBB2043:
.LBB2038:
	.loc 6 98 0
	jne	.L183
	.loc 6 105 0
	movq	8(%rsp), %rdx
	movq	%r15, %rdi
	call	_ZNSt6vectorISt4pairIKiS1_ESaIS2_EE17_M_realloc_insertIJS2_EEEvN9__gnu_cxx17__normal_iteratorIPS2_S4_EEDpOT_@PLT
.LVL102:
.LEHE0:
.LBE2038:
.LBE2043:
.LBE2054:
.LBE2057:
	.loc 13 83 0
	addq	$1, %rbx
.LVL103:
	cmpq	%rbx, %rbp
	jne	.L66
.LVL104:
.L72:
.LBE2059:
.LBB2060:
.LBB2061:
.LBB2062:
.LBB2063:
.LBB2064:
.LBB2065:
.LBB2066:
.LBB2067:
.LBB2068:
.LBB2069:
.LBB2070:
.LBB2071:
.LBB2072:
.LBB2073:
	.loc 3 6404 0
	leaq	224(%rsp), %rax
	movq	96(%rsp), %rdx
.LVL105:
.LBE2073:
.LBE2072:
.LBE2071:
.LBE2070:
.LBE2069:
.LBE2068:
.LBE2067:
.LBE2066:
.LBE2065:
.LBE2064:
.LBE2063:
.LBE2062:
.LBE2061:
	.loc 13 89 0
	cmpq	%rdx, 104(%rsp)
	movq	$0, 64(%rsp)
.LBB2340:
.LBB2304:
.LBB2299:
.LBB2251:
.LBB2244:
.LBB2173:
.LBB2168:
.LBB2160:
.LBB2154:
.LBB2119:
.LBB2113:
.LBB2076:
.LBB2074:
	.loc 3 6404 0
	movq	%rax, 32(%rsp)
.LBE2074:
.LBE2076:
.LBB2077:
.LBB2078:
.LBB2079:
.LBB2080:
	.loc 3 220 0
	leaq	240(%rsp), %rax
	movq	%rax, 40(%rsp)
.LBE2080:
.LBE2079:
.LBE2078:
.LBE2077:
.LBE2113:
.LBE2119:
.LBE2154:
.LBE2160:
.LBE2168:
.LBE2173:
.LBE2244:
.LBE2251:
.LBE2299:
.LBE2304:
.LBE2340:
	.loc 13 89 0
	je	.L68
.LVL106:
	.p2align 4,,10
	.p2align 3
.L67:
.LBB2341:
.LBB2305:
.LBB2306:
	.loc 7 798 0
	movq	64(%rsp), %rax
	leaq	(%rdx,%rax,8), %rax
.LVL107:
.LBE2306:
.LBE2305:
	.loc 13 90 0
	movl	(%rax), %edi
.LVL108:
	.loc 13 91 0
	movl	4(%rax), %ebx
.LVL109:
	.loc 13 93 0
	cmpl	%ebx, %edi
	je	.L121
.LVL110:
.LBB2307:
.LBB2300:
.LBB2252:
.LBB2253:
.LBB2254:
.LBB2255:
.LBB2256:
.LBB2257:
	.loc 7 89 0
	movq	$0, 128(%rsp)
	movq	$0, 136(%rsp)
.LBE2257:
.LBE2256:
.LBE2255:
.LBE2254:
.LBB2261:
	.loc 13 21 0
	movl	$0, %esi
.LBE2261:
.LBB2273:
.LBB2260:
.LBB2259:
.LBB2258:
	.loc 7 89 0
	movq	$0, 144(%rsp)
.LVL111:
.LBE2258:
.LBE2259:
.LBE2260:
.LBE2273:
.LBB2274:
	.loc 13 21 0
	movl	%edi, 92(%rsp)
	jge	.L74
.LBB2262:
.LBB2263:
	.loc 7 948 0
	leaq	92(%rsp), %r12
	leaq	128(%rsp), %rbp
.LVL112:
	.p2align 4,,10
	.p2align 3
.L80:
.LBE2263:
.LBE2262:
.LBB2269:
.LBB2270:
	.loc 13 10 0
	cmpl	$2, %edi
	jle	.L75
	.loc 13 11 0
	testb	$1, %dil
	je	.L76
	.loc 13 10 0
	movl	$2, %ecx
	jmp	.L77
.LVL113:
	.p2align 4,,10
	.p2align 3
.L176:
	.loc 13 11 0
	movl	%edi, %eax
	cltd
	idivl	%ecx
	testl	%edx, %edx
	je	.L76
.LVL114:
.L77:
	.loc 13 10 0
	addl	$1, %ecx
.LVL115:
	cmpl	%edi, %ecx
	jne	.L176
.LVL116:
.L75:
.LBE2270:
.LBE2269:
.LBB2271:
.LBB2267:
	.loc 7 941 0
	cmpq	%rsi, 144(%rsp)
	je	.L184
.LVL117:
.LBB2264:
.LBB2265:
.LBB2266:
	.loc 9 136 0
	testq	%rsi, %rsi
	je	.L79
	movl	%edi, (%rsi)
.L79:
.LVL118:
.LBE2266:
.LBE2265:
.LBE2264:
	.loc 7 945 0
	addq	$4, %rsi
	movq	%rsi, 136(%rsp)
.LVL119:
.L76:
.LBE2267:
.LBE2271:
	.loc 13 21 0
	movl	92(%rsp), %eax
	leal	1(%rax), %edi
	cmpl	%edi, %ebx
	movl	%edi, 92(%rsp)
	jg	.L80
.L74:
.LVL120:
	movq	128(%rsp), %rdi
.LVL121:
.LBE2274:
.LBE2253:
.LBE2252:
.LBB2277:
	.loc 13 69 0
	cmpq	%rdi, %rsi
	je	.L185
.LVL122:
.LBB2245:
.LBB2174:
.LBB2175:
	.loc 12 833 0
	leaq	4(%rdi), %r13
.LVL123:
	movq	_ZSt4cout@GOTPCREL(%rip), %rax
.LBE2175:
.LBE2174:
.LBE2245:
.LBE2277:
	.loc 13 68 0
	movq	$0, 56(%rsp)
.LBB2278:
.LBB2246:
	.loc 13 70 0
	cmpq	%rsi, %r13
	movq	%rax, 8(%rsp)
	je	.L82
.LVL124:
	.p2align 4,,10
	.p2align 3
.L104:
.LBB2176:
.LBB2177:
	.file 16 "/nix/store/bm7pb1s7rx1ad80706b5xqrznq7fgpgx-gcc-7.3.0/include/c++/7.3.0/ostream"
	.loc 16 561 0
	movq	8(%rsp), %rdi
	leaq	.LC0(%rip), %rsi
	movl	$5, %edx
.LEHB1:
	call	_ZSt16__ostream_insertIcSt11char_traitsIcEERSt13basic_ostreamIT_T0_ES6_PKS3_l@PLT
.LVL125:
.LBE2177:
.LBE2176:
.LBB2178:
.LBB2179:
.LBB2180:
	.loc 7 671 0
	movq	136(%rsp), %rax
	movq	128(%rsp), %rsi
.LVL126:
	movq	%rax, %rbx
	subq	%rsi, %rbx
	movq	%rbx, %rdx
	sarq	$2, %rdx
.LVL127:
.LBE2180:
.LBE2179:
.LBB2181:
.LBB2182:
.LBB2183:
.LBB2184:
	.loc 7 172 0
	testq	%rdx, %rdx
	je	.L124
.LVL128:
.LBB2185:
.LBB2186:
.LBB2187:
	.loc 9 101 0
	movabsq	$4611686018427387903, %rax
	cmpq	%rax, %rdx
	ja	.L186
	.loc 9 111 0
	movq	%rbx, %rdi
	call	_Znwm@PLT
.LVL129:
.LEHE1:
	movq	%rax, 48(%rsp)
	movq	136(%rsp), %rax
	movq	128(%rsp), %rsi
	movq	%rax, %rbx
.LVL130:
	subq	%rsi, %rbx
.LVL131:
.L86:
.LBE2187:
.LBE2186:
.LBE2185:
.LBE2184:
.LBE2183:
.LBE2182:
.LBE2181:
.LBB2197:
.LBB2198:
.LBB2199:
.LBB2200:
.LBB2201:
.LBB2202:
.LBB2203:
.LBB2204:
.LBB2205:
.LBB2206:
	.loc 8 367 0
	cmpq	%rsi, %rax
	je	.L88
	.loc 8 368 0
	movq	48(%rsp), %rdi
	movq	%rbx, %rdx
	call	memmove@PLT
.LVL132:
.L88:
	.loc 8 369 0
	addq	48(%rsp), %rbx
.LBE2206:
.LBE2205:
.LBE2204:
.LBE2203:
.LBE2202:
.LBE2201:
.LBE2200:
.LBE2199:
.LBE2198:
.LBE2197:
.LBE2178:
.LBB2219:
.LBB2169:
.LBB2161:
.LBB2162:
	.loc 16 561 0
	movq	8(%rsp), %rdi
	leaq	.LC1(%rip), %rsi
	movl	$3, %edx
.LBE2162:
.LBE2161:
.LBE2169:
.LBE2219:
.LBB2220:
.LBB2216:
.LBB2215:
.LBB2214:
.LBB2213:
.LBB2212:
.LBB2211:
.LBB2210:
.LBB2209:
.LBB2208:
.LBB2207:
	.loc 8 369 0
	movq	%rbx, 16(%rsp)
.LVL133:
.LEHB2:
.LBE2207:
.LBE2208:
.LBE2209:
.LBE2210:
.LBE2211:
.LBE2212:
.LBE2213:
.LBE2214:
.LBE2215:
.LBE2216:
.LBE2220:
.LBB2221:
.LBB2170:
.LBB2164:
.LBB2163:
	.loc 16 561 0
	call	_ZSt16__ostream_insertIcSt11char_traitsIcEERSt13basic_ostreamIT_T0_ES6_PKS3_l@PLT
.LVL134:
.LBE2163:
.LBE2164:
.LBB2165:
	.loc 13 55 0
	cmpq	%r13, %rbx
	je	.L125
.LBB2155:
.LBB2120:
.LBB2121:
	.loc 16 509 0
	leaq	88(%rsp), %rax
	movq	%r13, %rbx
.LBE2121:
.LBE2120:
.LBE2155:
	.loc 13 55 0
	movq	%r13, %r14
.LBB2156:
.LBB2124:
.LBB2114:
.LBB2088:
.LBB2089:
	.loc 3 6404 0
	leaq	192(%rsp), %r15
.LBE2089:
.LBE2088:
.LBE2114:
.LBE2124:
.LBB2125:
.LBB2122:
	.loc 16 509 0
	movq	%rax, 24(%rsp)
	jmp	.L102
.LVL135:
	.p2align 4,,10
	.p2align 3
.L189:
	movsbl	67(%rbp), %esi
.LVL136:
.L92:
.LBE2122:
.LBE2125:
.LBB2126:
.LBB2127:
.LBB2128:
	.loc 16 591 0
	movq	%r12, %rdi
	call	_ZNSo3putEc@PLT
.LVL137:
.LBB2129:
.LBB2130:
	.loc 16 613 0
	movq	%rax, %rdi
	call	_ZNSo5flushEv@PLT
.LVL138:
.LBE2130:
.LBE2129:
.LBE2128:
.LBE2127:
.LBE2126:
.LBB2147:
.LBB2115:
.LBB2092:
.LBB2090:
	.loc 3 6404 0
	movq	vsnprintf@GOTPCREL(%rip), %rbp
	movl	0(%r13), %r8d
	leaq	.LC2(%rip), %rcx
	movl	$16, %edx
	movq	%r15, %rdi
	xorl	%eax, %eax
.LBE2090:
.LBE2092:
.LBE2115:
.LBE2147:
	.loc 13 57 0
	movl	(%rbx), %r12d
.LVL139:
.LBB2148:
.LBB2116:
.LBB2093:
.LBB2091:
	.loc 3 6404 0
	movq	%rbp, %rsi
	call	_ZN9__gnu_cxx12__to_xstringINSt7__cxx1112basic_stringIcSt11char_traitsIcESaIcEEEcEET_PFiPT0_mPKS8_P13__va_list_tagEmSB_z@PLT
.LVL140:
.LEHE2:
.LBE2091:
.LBE2093:
.LBB2094:
.LBB2075:
	movq	32(%rsp), %rdi
	leaq	.LC2(%rip), %rcx
	movl	%r12d, %r8d
	movl	$16, %edx
	movq	%rbp, %rsi
	xorl	%eax, %eax
.LEHB3:
	call	_ZN9__gnu_cxx12__to_xstringINSt7__cxx1112basic_stringIcSt11char_traitsIcESaIcEEEcEET_PFiPT0_mPKS8_P13__va_list_tagEmSB_z@PLT
.LVL141:
.LEHE3:
	movq	200(%rsp), %rdx
.LVL142:
.LBE2075:
.LBE2094:
	.loc 13 33 0
	xorl	%ebp, %ebp
.LBB2095:
	.loc 13 34 0
	cmpq	232(%rsp), %rdx
	movq	224(%rsp), %rdi
	je	.L187
.LVL143:
.L93:
.LBE2095:
.LBB2097:
.LBB2087:
.LBB2086:
.LBB2085:
	.loc 3 220 0
	cmpq	40(%rsp), %rdi
	je	.L96
.LVL144:
.LBB2081:
.LBB2082:
.LBB2083:
.LBB2084:
	.loc 9 125 0
	call	_ZdlPv@PLT
.LVL145:
.L96:
	movq	192(%rsp), %rdi
.LVL146:
.LBE2084:
.LBE2083:
.LBE2082:
.LBE2081:
.LBE2085:
.LBE2086:
.LBE2087:
.LBE2097:
.LBB2098:
.LBB2099:
.LBB2100:
	.loc 3 220 0
	leaq	16(%r15), %rax
	cmpq	%rax, %rdi
	je	.L97
.LVL147:
.LBB2101:
.LBB2102:
.LBB2103:
.LBB2104:
	.loc 9 125 0
	call	_ZdlPv@PLT
.LVL148:
.L97:
.LBE2104:
.LBE2103:
.LBE2102:
.LBE2101:
.LBE2100:
.LBE2099:
.LBE2098:
.LBE2116:
.LBE2148:
	.loc 13 58 0
	cmpq	$1, %rbp
	cmove	%rbx, %r14
.LVL149:
	addq	$4, %rbx
.LVL150:
.LBE2156:
	.loc 13 55 0
	cmpq	%rbx, 16(%rsp)
	je	.L89
.LVL151:
.L102:
.LBB2157:
	.loc 13 56 0
	movl	0(%r13), %esi
	movq	8(%rsp), %rdi
.LEHB4:
	call	_ZNSolsEi@PLT
.LVL152:
.LBB2149:
.LBB2123:
	.loc 16 509 0
	movq	24(%rsp), %rsi
	movl	$1, %edx
	movq	%rax, %rdi
	movb	$32, 88(%rsp)
.LVL153:
	call	_ZSt16__ostream_insertIcSt11char_traitsIcEERSt13basic_ostreamIT_T0_ES6_PKS3_l@PLT
.LVL154:
.LBE2123:
.LBE2149:
	.loc 13 56 0
	movl	(%rbx), %esi
	movq	%rax, %rdi
	call	_ZNSolsEi@PLT
.LVL155:
	movq	%rax, %r12
.LVL156:
.LBB2150:
.LBB2145:
.LBB2143:
	.loc 16 591 0
	movq	(%rax), %rax
.LVL157:
.LBB2131:
.LBB2132:
	.file 17 "/nix/store/bm7pb1s7rx1ad80706b5xqrznq7fgpgx-gcc-7.3.0/include/c++/7.3.0/bits/basic_ios.h"
	.loc 17 450 0
	movq	-24(%rax), %rax
.LVL158:
	movq	240(%r12,%rax), %rbp
.LVL159:
.LBB2133:
.LBB2134:
	.loc 17 49 0
	testq	%rbp, %rbp
	je	.L188
.LVL160:
.LBE2134:
.LBE2133:
.LBB2136:
.LBB2137:
	.loc 1 874 0
	cmpb	$0, 56(%rbp)
	jne	.L189
.LVL161:
.LBB2138:
.LBB2139:
	.loc 1 876 0
	movq	%rbp, %rdi
	call	_ZNKSt5ctypeIcE13_M_widen_initEv@PLT
.LVL162:
	.loc 1 877 0
	movq	0(%rbp), %rax
	movl	$10, %esi
	movq	48(%rax), %rax
	cmpq	_ZNKSt5ctypeIcE8do_widenEc@GOTPCREL(%rip), %rax
	je	.L92
	movq	%rbp, %rdi
	call	*%rax
.LVL163:
.LEHE4:
	movsbl	%al, %esi
	jmp	.L92
.LVL164:
	.p2align 4,,10
	.p2align 3
.L187:
.LBE2139:
.LBE2138:
.LBE2137:
.LBE2136:
.LBE2132:
.LBE2131:
.LBE2143:
.LBE2145:
.LBE2150:
.LBB2151:
.LBB2117:
.LBB2105:
.LBB2096:
	.loc 13 35 0
	testq	%rdx, %rdx
	je	.L93
	movq	192(%rsp), %rsi
	xorl	%eax, %eax
.LVL165:
	.p2align 4,,10
	.p2align 3
.L95:
	.loc 13 37 0
	movzbl	(%rdi,%rax), %ecx
	cmpb	%cl, (%rsi,%rax)
	setne	%cl
	.loc 13 35 0
	addq	$1, %rax
.LVL166:
	.loc 13 37 0
	movzbl	%cl, %ecx
	addq	%rcx, %rbp
.LVL167:
	.loc 13 35 0
	cmpq	%rax, %rdx
	jne	.L95
	jmp	.L93
.LVL168:
	.p2align 4,,10
	.p2align 3
.L125:
.LBE2096:
.LBE2105:
.LBE2117:
.LBE2151:
.LBE2157:
	.loc 13 55 0
	movq	16(%rsp), %r14
.LVL169:
	.p2align 4,,10
	.p2align 3
.L89:
.LBE2165:
.LBE2170:
.LBE2221:
.LBB2222:
.LBB2223:
.LBB2224:
.LBB2225:
	.loc 7 179 0
	movq	48(%rsp), %rax
.LBE2225:
.LBE2224:
.LBE2223:
.LBE2222:
	.loc 13 70 0
	addq	$1, 56(%rsp)
.LVL170:
.LBB2232:
.LBB2231:
.LBB2230:
.LBB2229:
	.loc 7 179 0
	testq	%rax, %rax
	je	.L103
.LVL171:
.LBB2226:
.LBB2227:
.LBB2228:
	.loc 9 125 0
	movq	%rax, %rdi
	call	_ZdlPv@PLT
.LVL172:
.L103:
.LBE2228:
.LBE2227:
.LBE2226:
.LBE2229:
.LBE2230:
.LBE2231:
.LBE2232:
	.loc 13 70 0
	cmpq	%r14, 136(%rsp)
	movq	%r14, %r13
	jne	.L104
.LVL173:
	movq	128(%rsp), %rdi
.LVL174:
.L82:
.LBE2246:
.LBE2278:
.LBB2279:
.LBB2280:
.LBB2281:
.LBB2282:
	.loc 7 179 0
	testq	%rdi, %rdi
	je	.L73
.LVL175:
.LBB2283:
.LBB2284:
.LBB2285:
	.loc 9 125 0
	call	_ZdlPv@PLT
.LVL176:
.L73:
.LBE2285:
.LBE2284:
.LBE2283:
.LBE2282:
.LBE2281:
.LBE2280:
.LBE2279:
.LBE2300:
.LBE2307:
.LBB2308:
.LBB2309:
	.loc 16 171 0
	movq	56(%rsp), %rsi
	movq	8(%rsp), %rdi
.LEHB5:
	call	_ZNSo9_M_insertImEERSoT_@PLT
.LVL177:
	movq	%rax, %rbp
.LVL178:
.LBE2309:
.LBE2308:
.LBB2310:
.LBB2311:
.LBB2312:
	.loc 16 591 0
	movq	(%rax), %rax
.LVL179:
.LBB2313:
.LBB2314:
	.loc 17 450 0
	movq	-24(%rax), %rax
.LVL180:
	movq	240(%rbp,%rax), %rbx
.LVL181:
.LBB2315:
.LBB2316:
	.loc 17 49 0
	testq	%rbx, %rbx
	je	.L190
.LVL182:
.LBE2316:
.LBE2315:
.LBB2318:
.LBB2319:
	.loc 1 874 0
	cmpb	$0, 56(%rbx)
	je	.L110
	movsbl	67(%rbx), %esi
.LVL183:
.L111:
.LBE2319:
.LBE2318:
.LBE2314:
.LBE2313:
	.loc 16 591 0
	movq	%rbp, %rdi
	call	_ZNSo3putEc@PLT
.LVL184:
.LBB2327:
.LBB2328:
	.loc 16 613 0
	movq	%rax, %rdi
	call	_ZNSo5flushEv@PLT
.LVL185:
	movq	96(%rsp), %rdx
.LBE2328:
.LBE2327:
.LBE2312:
.LBE2311:
.LBE2310:
.LBE2341:
.LBB2342:
.LBB2343:
	.loc 7 671 0
	movq	104(%rsp), %rax
.LBE2343:
.LBE2342:
	.loc 13 89 0
	addq	$1, 64(%rsp)
.LVL186:
	movq	64(%rsp), %rbx
.LVL187:
.LBB2345:
.LBB2344:
	.loc 7 671 0
	subq	%rdx, %rax
	sarq	$3, %rax
.LBE2344:
.LBE2345:
	.loc 13 89 0
	cmpq	%rax, %rbx
	jb	.L67
.LVL188:
.L68:
.LBE2060:
.LBB2348:
.LBB2349:
.LBB2350:
.LBB2351:
	.loc 3 220 0
	movq	72(%rsp), %rax
	movq	160(%rsp), %rdi
.LVL189:
	addq	$16, %rax
	cmpq	%rax, %rdi
	je	.L112
.LVL190:
.LBB2352:
.LBB2353:
.LBB2354:
.LBB2355:
	.loc 9 125 0
	call	_ZdlPv@PLT
.LVL191:
.L112:
.LBE2355:
.LBE2354:
.LBE2353:
.LBE2352:
.LBE2351:
.LBE2350:
.LBE2349:
.LBE2348:
.LBB2356:
.LBB2357:
	.loc 7 434 0
	movq	96(%rsp), %rdi
.LVL192:
.LBB2358:
.LBB2359:
.LBB2360:
	.loc 7 179 0
	testq	%rdi, %rdi
	je	.L113
.LVL193:
.LBB2361:
.LBB2362:
.LBB2363:
	.loc 9 125 0
	call	_ZdlPv@PLT
.LVL194:
.L113:
.LBE2363:
.LBE2362:
.LBE2361:
.LBE2360:
.LBE2359:
.LBE2358:
.LBE2357:
.LBE2356:
	.loc 13 100 0
	xorl	%eax, %eax
	movq	264(%rsp), %rbx
	xorq	%fs:40, %rbx
	jne	.L191
	addq	$280, %rsp
	.cfi_remember_state
	.cfi_def_cfa_offset 56
	popq	%rbx
	.cfi_def_cfa_offset 48
	popq	%rbp
	.cfi_def_cfa_offset 40
	popq	%r12
	.cfi_def_cfa_offset 32
	popq	%r13
	.cfi_def_cfa_offset 24
	popq	%r14
	.cfi_def_cfa_offset 16
	popq	%r15
	.cfi_def_cfa_offset 8
	ret
.LVL195:
	.p2align 4,,10
	.p2align 3
.L110:
	.cfi_restore_state
.LBB2364:
.LBB2346:
.LBB2335:
.LBB2333:
.LBB2331:
.LBB2329:
.LBB2325:
.LBB2323:
.LBB2322:
.LBB2320:
.LBB2321:
	.loc 1 876 0
	movq	%rbx, %rdi
	call	_ZNKSt5ctypeIcE13_M_widen_initEv@PLT
.LVL196:
	.loc 1 877 0
	movq	(%rbx), %rax
	movl	$10, %esi
	movq	48(%rax), %rax
	cmpq	_ZNKSt5ctypeIcE8do_widenEc@GOTPCREL(%rip), %rax
	je	.L111
	movq	%rbx, %rdi
	call	*%rax
.LVL197:
.LEHE5:
	movsbl	%al, %esi
	jmp	.L111
.LVL198:
	.p2align 4,,10
	.p2align 3
.L121:
	movq	_ZSt4cout@GOTPCREL(%rip), %rax
.LBE2321:
.LBE2320:
.LBE2322:
.LBE2323:
.LBE2325:
.LBE2329:
.LBE2331:
.LBE2333:
.LBE2335:
	.loc 13 92 0
	movq	$0, 56(%rsp)
	movq	%rax, 8(%rsp)
	jmp	.L73
.LVL199:
.L185:
	movq	_ZSt4cout@GOTPCREL(%rip), %rax
.LBB2336:
.LBB2301:
	.loc 13 68 0
	movq	$0, 56(%rsp)
	movq	%rax, 8(%rsp)
	jmp	.L82
.LVL200:
.L124:
.LBB2286:
.LBB2247:
.LBB2233:
.LBB2217:
.LBB2195:
.LBB2193:
.LBB2191:
	.loc 7 172 0
	movq	$0, 48(%rsp)
	jmp	.L86
.LVL201:
	.p2align 4,,10
	.p2align 3
.L184:
.LBE2191:
.LBE2193:
.LBE2195:
.LBE2217:
.LBE2233:
.LBE2247:
.LBE2286:
.LBB2287:
.LBB2276:
.LBB2275:
.LBB2272:
.LBB2268:
	.loc 7 948 0
	movq	%r12, %rdx
	movq	%rbp, %rdi
.LEHB6:
	call	_ZNSt6vectorIiSaIiEE17_M_realloc_insertIJRKiEEEvN9__gnu_cxx17__normal_iteratorIPiS1_EEDpOT_@PLT
.LVL202:
.LEHE6:
	movq	136(%rsp), %rsi
	jmp	.L76
.LVL203:
.L188:
.LEHB7:
.LBE2268:
.LBE2272:
.LBE2275:
.LBE2276:
.LBE2287:
.LBB2288:
.LBB2248:
.LBB2234:
.LBB2171:
.LBB2166:
.LBB2158:
.LBB2152:
.LBB2146:
.LBB2144:
.LBB2142:
.LBB2141:
.LBB2140:
.LBB2135:
	.loc 17 50 0
	call	_ZSt16__throw_bad_castv@PLT
.LVL204:
.LEHE7:
.L133:
	movq	%rax, %rbx
.L101:
.LVL205:
.LBE2135:
.LBE2140:
.LBE2141:
.LBE2142:
.LBE2144:
.LBE2146:
.LBE2152:
.LBE2158:
.LBE2166:
.LBE2171:
.LBE2234:
.LBB2235:
.LBB2236:
.LBB2237:
.LBB2238:
	.loc 7 179 0
	movq	48(%rsp), %rax
	testq	%rax, %rax
	je	.L107
.LVL206:
.LBB2239:
.LBB2240:
.LBB2241:
	.loc 9 125 0
	movq	%rax, %rdi
	call	_ZdlPv@PLT
.LVL207:
.L107:
.LBE2241:
.LBE2240:
.LBE2239:
.LBE2238:
.LBE2237:
.LBE2236:
.LBE2235:
.LBE2248:
.LBE2288:
.LBB2289:
.LBB2290:
	.loc 7 434 0
	movq	128(%rsp), %rdi
.LVL208:
.LBB2291:
.LBB2292:
.LBB2293:
	.loc 7 179 0
	testq	%rdi, %rdi
	je	.L85
.LVL209:
.LBB2294:
.LBB2295:
.LBB2296:
	.loc 9 125 0
	call	_ZdlPv@PLT
.LVL210:
.L85:
.LBE2296:
.LBE2295:
.LBE2294:
.LBE2293:
.LBE2292:
.LBE2291:
.LBE2290:
.LBE2289:
.LBE2301:
.LBE2336:
.LBE2346:
.LBE2364:
.LBB2365:
.LBB2366:
.LBB2367:
.LBB2368:
	.loc 3 220 0
	movq	72(%rsp), %rdx
	movq	160(%rsp), %rdi
.LVL211:
	addq	$16, %rdx
	cmpq	%rdx, %rdi
	je	.L114
.LVL212:
.LBB2369:
.LBB2370:
.LBB2371:
.LBB2372:
	.loc 9 125 0
	call	_ZdlPv@PLT
.LVL213:
.L114:
.LBE2372:
.LBE2371:
.LBE2370:
.LBE2369:
.LBE2368:
.LBE2367:
.LBE2366:
.LBE2365:
.LBB2373:
.LBB2374:
	.loc 7 434 0
	movq	96(%rsp), %rdi
.LVL214:
.LBB2375:
.LBB2376:
.LBB2377:
	.loc 7 179 0
	testq	%rdi, %rdi
	je	.L115
.LVL215:
.LBB2378:
.LBB2379:
.LBB2380:
	.loc 9 125 0
	call	_ZdlPv@PLT
.LVL216:
.L115:
	movq	%rbx, %rdi
.LEHB8:
	call	_Unwind_Resume@PLT
.LVL217:
.LEHE8:
.L186:
.LEHB9:
.LBE2380:
.LBE2379:
.LBE2378:
.LBE2377:
.LBE2376:
.LBE2375:
.LBE2374:
.LBE2373:
.LBB2381:
.LBB2347:
.LBB2337:
.LBB2302:
.LBB2297:
.LBB2249:
.LBB2242:
.LBB2218:
.LBB2196:
.LBB2194:
.LBB2192:
.LBB2190:
.LBB2189:
.LBB2188:
	.loc 9 102 0
	call	_ZSt17__throw_bad_allocv@PLT
.LVL218:
.LEHE9:
.L132:
.L182:
	movq	%rax, %rbx
	jmp	.L107
.LVL219:
.L190:
.LEHB10:
.LBE2188:
.LBE2189:
.LBE2190:
.LBE2192:
.LBE2194:
.LBE2196:
.LBE2218:
.LBE2242:
.LBE2249:
.LBE2297:
.LBE2302:
.LBE2337:
.LBB2338:
.LBB2334:
.LBB2332:
.LBB2330:
.LBB2326:
.LBB2324:
.LBB2317:
	.loc 17 50 0
	call	_ZSt16__throw_bad_castv@PLT
.LVL220:
.LEHE10:
.L135:
	movq	192(%rsp), %rdi
.LBE2317:
.LBE2324:
.LBE2326:
.LBE2330:
.LBE2332:
.LBE2334:
.LBE2338:
.LBB2339:
.LBB2303:
.LBB2298:
.LBB2250:
.LBB2243:
.LBB2172:
.LBB2167:
.LBB2159:
.LBB2153:
.LBB2118:
.LBB2106:
.LBB2107:
.LBB2108:
	.loc 3 220 0
	addq	$16, %r15
	movq	%rax, %rbx
.LVL221:
	cmpq	%r15, %rdi
	je	.L101
.LVL222:
.LBB2109:
.LBB2110:
.LBB2111:
.LBB2112:
	.loc 9 125 0
	call	_ZdlPv@PLT
.LVL223:
	jmp	.L101
.LVL224:
.L131:
	movq	%rax, %rbx
	jmp	.L85
.LVL225:
.L134:
	jmp	.L182
.LVL226:
.L191:
.LBE2112:
.LBE2111:
.LBE2110:
.LBE2109:
.LBE2108:
.LBE2107:
.LBE2106:
.LBE2118:
.LBE2153:
.LBE2159:
.LBE2167:
.LBE2172:
.LBE2243:
.LBE2250:
.LBE2298:
.LBE2303:
.LBE2339:
.LBE2347:
.LBE2381:
	.loc 13 100 0
	call	__stack_chk_fail@PLT
.LVL227:
	.cfi_endproc
.LFE1935:
	.globl	__gxx_personality_v0
	.section	.gcc_except_table,"a",@progbits
.LLSDA1935:
	.byte	0xff
	.byte	0xff
	.byte	0x1
	.uleb128 .LLSDACSE1935-.LLSDACSB1935
.LLSDACSB1935:
	.uleb128 .LEHB0-.LFB1935
	.uleb128 .LEHE0-.LEHB0
	.uleb128 .L131-.LFB1935
	.uleb128 0
	.uleb128 .LEHB1-.LFB1935
	.uleb128 .LEHE1-.LEHB1
	.uleb128 .L132-.LFB1935
	.uleb128 0
	.uleb128 .LEHB2-.LFB1935
	.uleb128 .LEHE2-.LEHB2
	.uleb128 .L133-.LFB1935
	.uleb128 0
	.uleb128 .LEHB3-.LFB1935
	.uleb128 .LEHE3-.LEHB3
	.uleb128 .L135-.LFB1935
	.uleb128 0
	.uleb128 .LEHB4-.LFB1935
	.uleb128 .LEHE4-.LEHB4
	.uleb128 .L133-.LFB1935
	.uleb128 0
	.uleb128 .LEHB5-.LFB1935
	.uleb128 .LEHE5-.LEHB5
	.uleb128 .L131-.LFB1935
	.uleb128 0
	.uleb128 .LEHB6-.LFB1935
	.uleb128 .LEHE6-.LEHB6
	.uleb128 .L134-.LFB1935
	.uleb128 0
	.uleb128 .LEHB7-.LFB1935
	.uleb128 .LEHE7-.LEHB7
	.uleb128 .L133-.LFB1935
	.uleb128 0
	.uleb128 .LEHB8-.LFB1935
	.uleb128 .LEHE8-.LEHB8
	.uleb128 0
	.uleb128 0
	.uleb128 .LEHB9-.LFB1935
	.uleb128 .LEHE9-.LEHB9
	.uleb128 .L132-.LFB1935
	.uleb128 0
	.uleb128 .LEHB10-.LFB1935
	.uleb128 .LEHE10-.LEHB10
	.uleb128 .L131-.LFB1935
	.uleb128 0
.LLSDACSE1935:
	.section	.text.startup
	.size	main, .-main
	.p2align 4,,15
	.type	_GLOBAL__sub_I_solution.cpp, @function
_GLOBAL__sub_I_solution.cpp:
.LFB2674:
	.loc 13 100 0
	.cfi_startproc
.LVL228:
.LBB2382:
.LBB2383:
	.file 18 "/nix/store/bm7pb1s7rx1ad80706b5xqrznq7fgpgx-gcc-7.3.0/include/c++/7.3.0/iostream"
	.loc 18 74 0
	leaq	_ZStL8__ioinit(%rip), %rdi
.LBE2383:
.LBE2382:
	.loc 13 100 0
	subq	$8, %rsp
	.cfi_def_cfa_offset 16
.LBB2386:
.LBB2384:
	.loc 18 74 0
	call	_ZNSt8ios_base4InitC1Ev@PLT
.LVL229:
	movq	_ZNSt8ios_base4InitD1Ev@GOTPCREL(%rip), %rdi
	leaq	__dso_handle(%rip), %rdx
	leaq	_ZStL8__ioinit(%rip), %rsi
.LBE2384:
.LBE2386:
	.loc 13 100 0
	addq	$8, %rsp
	.cfi_def_cfa_offset 8
.LBB2387:
.LBB2385:
	.loc 18 74 0
	jmp	__cxa_atexit@PLT
.LVL230:
.LBE2385:
.LBE2387:
	.cfi_endproc
.LFE2674:
	.size	_GLOBAL__sub_I_solution.cpp, .-_GLOBAL__sub_I_solution.cpp
	.section	.init_array,"aw"
	.align 8
	.quad	_GLOBAL__sub_I_solution.cpp
	.local	_ZStL8__ioinit
	.comm	_ZStL8__ioinit,1,1
	.text
.Letext0:
	.file 19 "/nix/store/bm7pb1s7rx1ad80706b5xqrznq7fgpgx-gcc-7.3.0/include/c++/7.3.0/bits/stringfwd.h"
	.file 20 "/nix/store/bm7pb1s7rx1ad80706b5xqrznq7fgpgx-gcc-7.3.0/include/c++/7.3.0/cstdint"
	.file 21 "/nix/store/bm7pb1s7rx1ad80706b5xqrznq7fgpgx-gcc-7.3.0/include/c++/7.3.0/cstdlib"
	.file 22 "/nix/store/bm7pb1s7rx1ad80706b5xqrznq7fgpgx-gcc-7.3.0/include/c++/7.3.0/cwchar"
	.file 23 "/nix/store/bm7pb1s7rx1ad80706b5xqrznq7fgpgx-gcc-7.3.0/include/c++/7.3.0/new"
	.file 24 "/nix/store/bm7pb1s7rx1ad80706b5xqrznq7fgpgx-gcc-7.3.0/include/c++/7.3.0/x86_64-unknown-linux-gnu/bits/c++config.h"
	.file 25 "/nix/store/bm7pb1s7rx1ad80706b5xqrznq7fgpgx-gcc-7.3.0/include/c++/7.3.0/bits/exception_ptr.h"
	.file 26 "/nix/store/bm7pb1s7rx1ad80706b5xqrznq7fgpgx-gcc-7.3.0/include/c++/7.3.0/type_traits"
	.file 27 "/nix/store/bm7pb1s7rx1ad80706b5xqrznq7fgpgx-gcc-7.3.0/include/c++/7.3.0/bits/cpp_type_traits.h"
	.file 28 "/nix/store/bm7pb1s7rx1ad80706b5xqrznq7fgpgx-gcc-7.3.0/include/c++/7.3.0/bits/stl_iterator_base_types.h"
	.file 29 "/nix/store/bm7pb1s7rx1ad80706b5xqrznq7fgpgx-gcc-7.3.0/include/c++/7.3.0/debug/debug.h"
	.file 30 "/nix/store/bm7pb1s7rx1ad80706b5xqrznq7fgpgx-gcc-7.3.0/include/c++/7.3.0/clocale"
	.file 31 "/nix/store/bm7pb1s7rx1ad80706b5xqrznq7fgpgx-gcc-7.3.0/include/c++/7.3.0/bits/allocator.h"
	.file 32 "/nix/store/bm7pb1s7rx1ad80706b5xqrznq7fgpgx-gcc-7.3.0/include/c++/7.3.0/cstdio"
	.file 33 "/nix/store/bm7pb1s7rx1ad80706b5xqrznq7fgpgx-gcc-7.3.0/include/c++/7.3.0/bits/alloc_traits.h"
	.file 34 "/nix/store/bm7pb1s7rx1ad80706b5xqrznq7fgpgx-gcc-7.3.0/include/c++/7.3.0/initializer_list"
	.file 35 "/nix/store/bm7pb1s7rx1ad80706b5xqrznq7fgpgx-gcc-7.3.0/include/c++/7.3.0/system_error"
	.file 36 "/nix/store/bm7pb1s7rx1ad80706b5xqrznq7fgpgx-gcc-7.3.0/include/c++/7.3.0/bits/ios_base.h"
	.file 37 "/nix/store/bm7pb1s7rx1ad80706b5xqrznq7fgpgx-gcc-7.3.0/include/c++/7.3.0/cwctype"
	.file 38 "/nix/store/bm7pb1s7rx1ad80706b5xqrznq7fgpgx-gcc-7.3.0/include/c++/7.3.0/bits/ostream.tcc"
	.file 39 "/nix/store/bm7pb1s7rx1ad80706b5xqrznq7fgpgx-gcc-7.3.0/include/c++/7.3.0/istream"
	.file 40 "/nix/store/bm7pb1s7rx1ad80706b5xqrznq7fgpgx-gcc-7.3.0/include/c++/7.3.0/iosfwd"
	.file 41 "/nix/store/bm7pb1s7rx1ad80706b5xqrznq7fgpgx-gcc-7.3.0/include/c++/7.3.0/bits/ptr_traits.h"
	.file 42 "/nix/store/bm7pb1s7rx1ad80706b5xqrznq7fgpgx-gcc-7.3.0/include/c++/7.3.0/bits/move.h"
	.file 43 "/nix/store/bm7pb1s7rx1ad80706b5xqrznq7fgpgx-gcc-7.3.0/include/c++/7.3.0/bits/stl_iterator_base_funcs.h"
	.file 44 "/nix/store/bm7pb1s7rx1ad80706b5xqrznq7fgpgx-gcc-7.3.0/include/c++/7.3.0/bits/ostream_insert.h"
	.file 45 "/nix/store/bm7pb1s7rx1ad80706b5xqrznq7fgpgx-gcc-7.3.0/include/c++/7.3.0/bits/functexcept.h"
	.file 46 "/nix/store/bm7pb1s7rx1ad80706b5xqrznq7fgpgx-gcc-7.3.0/include/c++/7.3.0/bits/predefined_ops.h"
	.file 47 "/nix/store/bm7pb1s7rx1ad80706b5xqrznq7fgpgx-gcc-7.3.0/include/c++/7.3.0/ext/numeric_traits.h"
	.file 48 "/nix/store/bm7pb1s7rx1ad80706b5xqrznq7fgpgx-gcc-7.3.0/include/c++/7.3.0/ext/alloc_traits.h"
	.file 49 "/nix/store/bm7pb1s7rx1ad80706b5xqrznq7fgpgx-gcc-7.3.0/include/c++/7.3.0/ext/type_traits.h"
	.file 50 "/nix/store/p85kjy91dfvs4in358zyfxlksvibw0zn-glibc-2.26-131-dev/include/bits/types.h"
	.file 51 "/nix/store/p85kjy91dfvs4in358zyfxlksvibw0zn-glibc-2.26-131-dev/include/bits/stdint-intn.h"
	.file 52 "/nix/store/p85kjy91dfvs4in358zyfxlksvibw0zn-glibc-2.26-131-dev/include/bits/stdint-uintn.h"
	.file 53 "/nix/store/p85kjy91dfvs4in358zyfxlksvibw0zn-glibc-2.26-131-dev/include/stdint.h"
	.file 54 "/nix/store/bm7pb1s7rx1ad80706b5xqrznq7fgpgx-gcc-7.3.0/lib/gcc/x86_64-unknown-linux-gnu/7.3.0/include/stddef.h"
	.file 55 "/nix/store/p85kjy91dfvs4in358zyfxlksvibw0zn-glibc-2.26-131-dev/include/bits/stdlib-float.h"
	.file 56 "/nix/store/p85kjy91dfvs4in358zyfxlksvibw0zn-glibc-2.26-131-dev/include/bits/stdlib-bsearch.h"
	.file 57 "/nix/store/p85kjy91dfvs4in358zyfxlksvibw0zn-glibc-2.26-131-dev/include/bits/stdlib.h"
	.file 58 "<built-in>"
	.file 59 "/nix/store/p85kjy91dfvs4in358zyfxlksvibw0zn-glibc-2.26-131-dev/include/bits/types/wint_t.h"
	.file 60 "/nix/store/p85kjy91dfvs4in358zyfxlksvibw0zn-glibc-2.26-131-dev/include/bits/types/__mbstate_t.h"
	.file 61 "/nix/store/p85kjy91dfvs4in358zyfxlksvibw0zn-glibc-2.26-131-dev/include/bits/types/mbstate_t.h"
	.file 62 "/nix/store/p85kjy91dfvs4in358zyfxlksvibw0zn-glibc-2.26-131-dev/include/bits/types/__FILE.h"
	.file 63 "/nix/store/p85kjy91dfvs4in358zyfxlksvibw0zn-glibc-2.26-131-dev/include/libio.h"
	.file 64 "/nix/store/p85kjy91dfvs4in358zyfxlksvibw0zn-glibc-2.26-131-dev/include/bits/types/FILE.h"
	.file 65 "/nix/store/p85kjy91dfvs4in358zyfxlksvibw0zn-glibc-2.26-131-dev/include/wchar.h"
	.file 66 "/nix/store/p85kjy91dfvs4in358zyfxlksvibw0zn-glibc-2.26-131-dev/include/bits/wchar2.h"
	.file 67 "/nix/store/p85kjy91dfvs4in358zyfxlksvibw0zn-glibc-2.26-131-dev/include/bits/types/struct_tm.h"
	.file 68 "/nix/store/p85kjy91dfvs4in358zyfxlksvibw0zn-glibc-2.26-131-dev/include/locale.h"
	.file 69 "/nix/store/p85kjy91dfvs4in358zyfxlksvibw0zn-glibc-2.26-131-dev/include/time.h"
	.file 70 "/nix/store/bm7pb1s7rx1ad80706b5xqrznq7fgpgx-gcc-7.3.0/include/c++/7.3.0/x86_64-unknown-linux-gnu/bits/atomic_word.h"
	.file 71 "/nix/store/p85kjy91dfvs4in358zyfxlksvibw0zn-glibc-2.26-131-dev/include/_G_config.h"
	.file 72 "/nix/store/p85kjy91dfvs4in358zyfxlksvibw0zn-glibc-2.26-131-dev/include/stdio.h"
	.file 73 "/nix/store/p85kjy91dfvs4in358zyfxlksvibw0zn-glibc-2.26-131-dev/include/bits/sys_errlist.h"
	.file 74 "/nix/store/p85kjy91dfvs4in358zyfxlksvibw0zn-glibc-2.26-131-dev/include/bits/stdio2.h"
	.file 75 "/nix/store/p85kjy91dfvs4in358zyfxlksvibw0zn-glibc-2.26-131-dev/include/bits/stdio.h"
	.file 76 "/nix/store/p85kjy91dfvs4in358zyfxlksvibw0zn-glibc-2.26-131-dev/include/errno.h"
	.file 77 "/nix/store/p85kjy91dfvs4in358zyfxlksvibw0zn-glibc-2.26-131-dev/include/bits/wctype-wchar.h"
	.file 78 "/nix/store/p85kjy91dfvs4in358zyfxlksvibw0zn-glibc-2.26-131-dev/include/wctype.h"
	.section	.data.DW.ref.__gxx_personality_v0,"awG",@progbits,DW.ref.__gxx_personality_v0,comdat
	.align 8
	.type	DW.ref.__gxx_personality_v0, @object
	.size	DW.ref.__gxx_personality_v0, 8
DW.ref.__gxx_personality_v0:
	.quad	__gxx_personality_v0
	.hidden	__dso_handle
	.ident	"GCC: (GNU) 7.3.0"
	.section	.note.GNU-stack,"",@progbits
